target datalayout = "e-m:e-p270:32:32-p271:32:32-p272:64:64-i64:64-i128:128-f80:128-n8:16:32:64-S128"
target triple = "x86_64-unknown-linux-gnu"

%class.mpz = type { i32, i8, ptr }
%class.svector = type { %class.vector }
%class.vector = type { ptr }
%"struct.std::pair" = type { i32, i32 }
%"class.polynomial::power" = type { %"struct.std::pair" }
%"class.polynomial::monomial" = type { i32, i32, i32, i32, i32, [0 x %"class.polynomial::power"] }
%"class.polynomial::manager" = type { ptr }
%"struct.polynomial::manager::imp" = type { ptr, ptr, %class.mpzzp_manager, %"class.upolynomial::manager", ptr, %class.ptr_vector, %class.id_gen, ptr, ptr, %class.mpz, ptr, %"class.polynomial::monomial2pos", %"class.polynomial::tmp_monomial", %class.svector.1, %class.svector.1, %class.ptr_vector.4, %class.svector, i8, i8, %"class.polynomial::manager::imp::som_buffer", %"class.polynomial::manager::imp::som_buffer", %"class.polynomial::manager::imp::cheap_som_buffer", %"class.polynomial::manager::imp::cheap_som_buffer", %class.vector.6, %class.svector, %class.svector.7, %class.svector, %"class.polynomial::manager::imp::som_buffer_vector", %"class.polynomial::manager::imp::newton_interpolator_vector", %class.scoped_ptr_vector, %"class.polynomial::manager::imp::var_max_degree", %"struct.polynomial::manager::imp::var_pos", %"class.polynomial::manager::imp::som_buffer_vector" }
%class.mpzzp_manager = type { ptr, i8, %class.mpz, %class.mpz, %class.mpz, i8, %class.mpz, %class.mpz, %class.mpz, %class.mpz }
%"class.upolynomial::manager" = type { %"class.upolynomial::core_manager", %class.svector.1, %class.svector.1, %class.svector.1, %class.svector.1, %class.svector.1 }
%"class.upolynomial::core_manager" = type { ptr, %class.mpzzp_manager, %class.svector.1, %class.svector.1, %class.svector.1, %class.svector.1, %class.svector.1, %class.svector.1, %class.svector.1, [6 x %class.svector.1], %class.svector.1, %class.svector.1, %class.svector.1 }
%class.ptr_vector = type { %class.vector.3 }
%class.vector.3 = type { ptr }
%class.id_gen = type { i32, %class.svector }
%"class.polynomial::monomial2pos" = type { %class.svector }
%"class.polynomial::tmp_monomial" = type <{ ptr, i32, [4 x i8] }>
%class.svector.1 = type { %class.vector.2 }
%class.vector.2 = type { ptr }
%class.ptr_vector.4 = type { %class.vector.5 }
%class.vector.5 = type { ptr }
%"class.polynomial::manager::imp::som_buffer" = type { ptr, %"class.polynomial::monomial2pos", %class.svector.1, %class.ptr_vector.4 }
%"class.polynomial::manager::imp::cheap_som_buffer" = type { ptr, %class.svector.1, %class.ptr_vector.4 }
%class.vector.6 = type { ptr }
%class.svector.7 = type { %class.vector.8 }
%class.vector.8 = type { ptr }
%"class.polynomial::manager::imp::newton_interpolator_vector" = type { ptr, %class.ptr_vector.11 }
%class.ptr_vector.11 = type { %class.vector.12 }
%class.vector.12 = type { ptr }
%class.scoped_ptr_vector = type { %class.ptr_vector.13 }
%class.ptr_vector.13 = type { %class.vector.14 }
%class.vector.14 = type { ptr }
%"class.polynomial::manager::imp::var_max_degree" = type { %class.svector, %class.svector }
%"struct.polynomial::manager::imp::var_pos" = type { %class.svector }
%"class.polynomial::manager::imp::som_buffer_vector" = type { ptr, %class.ptr_vector.9 }
%class.ptr_vector.9 = type { %class.vector.10 }
%class.vector.10 = type { ptr }
%"class.polynomial::monomial_manager" = type { i32, ptr, i8, %class.chashtable, %class.id_gen, i32, ptr, %"class.polynomial::tmp_monomial", %"class.polynomial::tmp_monomial", %"class.polynomial::tmp_monomial", %"class.polynomial::tmp_monomial", %class.svector.19 }
%class.chashtable = type { ptr, i32, i32, i32, i32, i32, i32, i32, ptr, ptr, ptr }
%class.svector.19 = type { %class.vector.20 }
%class.vector.20 = type { ptr }

; Function Attrs: mustprogress nounwind uwtable
define linkonce_odr hidden noundef ptr @_ZNK10polynomial8monomial10get_powersEv(ptr noundef nonnull align 4 dereferenceable(20) %this) #4 comdat align 2 {
entry:
  %this.addr = alloca ptr, align 8
  store ptr %this, ptr %this.addr, align 8
  %this1 = load ptr, ptr %this.addr, align 8
  %m_powers = getelementptr inbounds %"class.polynomial::monomial", ptr %this1, i32 0, i32 5
  %arraydecay = getelementptr inbounds [0 x %"class.polynomial::power"], ptr %m_powers, i64 0, i64 0
  ret ptr %arraydecay
}

; Function Attrs: mustprogress nounwind uwtable
define linkonce_odr hidden noundef i32 @_ZNK10polynomial8monomial4sizeEv(ptr noundef nonnull align 4 dereferenceable(20) %this) #4 comdat align 2 {
entry:
  %this.addr = alloca ptr, align 8
  store ptr %this, ptr %this.addr, align 8
  %this1 = load ptr, ptr %this.addr, align 8
  %m_size = getelementptr inbounds %"class.polynomial::monomial", ptr %this1, i32 0, i32 3
  %0 = load i32, ptr %m_size, align 4
  ret i32 %0
}

; Function Attrs: mustprogress uwtable
define linkonce_odr hidden noundef ptr @_ZN10polynomial16monomial_manager3gcdEPKNS_8monomialES3_RPS1_S5_(ptr noundef nonnull align 8 dereferenceable(192) %this, ptr noundef %m1, ptr noundef %m2, ptr noundef nonnull align 8 dereferenceable(8) %q1, ptr noundef nonnull align 8 dereferenceable(8) %q2) #5 comdat align 2 {
entry:
  %retval = alloca ptr, align 8
  %this.addr = alloca ptr, align 8
  %m1.addr = alloca ptr, align 8
  %m2.addr = alloca ptr, align 8
  %q1.addr = alloca ptr, align 8
  %q2.addr = alloca ptr, align 8
  store ptr %this, ptr %this.addr, align 8
  store ptr %m1, ptr %m1.addr, align 8
  store ptr %m2, ptr %m2.addr, align 8
  store ptr %q1, ptr %q1.addr, align 8
  store ptr %q2, ptr %q2.addr, align 8
  %this1 = load ptr, ptr %this.addr, align 8
  %0 = load ptr, ptr %m1.addr, align 8
  %call = call noundef i32 @_ZNK10polynomial8monomial4sizeEv(ptr noundef nonnull align 4 dereferenceable(20) %0)
  %1 = load ptr, ptr %m1.addr, align 8
  %call2 = call noundef ptr @_ZNK10polynomial8monomial10get_powersEv(ptr noundef nonnull align 4 dereferenceable(20) %1)
  %2 = load ptr, ptr %m2.addr, align 8
  %call3 = call noundef i32 @_ZNK10polynomial8monomial4sizeEv(ptr noundef nonnull align 4 dereferenceable(20) %2)
  %3 = load ptr, ptr %m2.addr, align 8
  %call4 = call noundef ptr @_ZNK10polynomial8monomial10get_powersEv(ptr noundef nonnull align 4 dereferenceable(20) %3)
  %m_tmp1 = getelementptr inbounds %"class.polynomial::monomial_manager", ptr %this1, i32 0, i32 8
  %m_tmp2 = getelementptr inbounds %"class.polynomial::monomial_manager", ptr %this1, i32 0, i32 9
  %m_tmp3 = getelementptr inbounds %"class.polynomial::monomial_manager", ptr %this1, i32 0, i32 10
  %call5 = call noundef zeroext i1 @_ZN10polynomial16monomial_manager8gcd_coreEjPKNS_5powerEjS3_RNS_12tmp_monomialES5_S5_(ptr noundef nonnull align 8 dereferenceable(192) %this1, i32 noundef %call, ptr noundef %call2, i32 noundef %call3, ptr noundef %call4, ptr noundef nonnull align 8 dereferenceable(12) %m_tmp1, ptr noundef nonnull align 8 dereferenceable(12) %m_tmp2, ptr noundef nonnull align 8 dereferenceable(12) %m_tmp3)
  br i1 %call5, label %if.then, label %if.else

if.then:                                          ; preds = %entry
  %m_tmp26 = getelementptr inbounds %"class.polynomial::monomial_manager", ptr %this1, i32 0, i32 9
  %call7 = call noundef ptr @_ZN10polynomial16monomial_manager11mk_monomialERNS_12tmp_monomialE(ptr noundef nonnull align 8 dereferenceable(192) %this1, ptr noundef nonnull align 8 dereferenceable(12) %m_tmp26)
  %4 = load ptr, ptr %q1.addr, align 8
  store ptr %call7, ptr %4, align 8
  %m_tmp38 = getelementptr inbounds %"class.polynomial::monomial_manager", ptr %this1, i32 0, i32 10
  %call9 = call noundef ptr @_ZN10polynomial16monomial_manager11mk_monomialERNS_12tmp_monomialE(ptr noundef nonnull align 8 dereferenceable(192) %this1, ptr noundef nonnull align 8 dereferenceable(12) %m_tmp38)
  %5 = load ptr, ptr %q2.addr, align 8
  store ptr %call9, ptr %5, align 8
  %m_tmp110 = getelementptr inbounds %"class.polynomial::monomial_manager", ptr %this1, i32 0, i32 8
  %call11 = call noundef ptr @_ZN10polynomial16monomial_manager11mk_monomialERNS_12tmp_monomialE(ptr noundef nonnull align 8 dereferenceable(192) %this1, ptr noundef nonnull align 8 dereferenceable(12) %m_tmp110)
  store ptr %call11, ptr %retval, align 8
  br label %return

if.else:                                          ; preds = %entry
  %6 = load ptr, ptr %m2.addr, align 8
  %7 = load ptr, ptr %q1.addr, align 8
  store ptr %6, ptr %7, align 8
  %8 = load ptr, ptr %m1.addr, align 8
  %9 = load ptr, ptr %q2.addr, align 8
  store ptr %8, ptr %9, align 8
  %m_unit = getelementptr inbounds %"class.polynomial::monomial_manager", ptr %this1, i32 0, i32 6
  %10 = load ptr, ptr %m_unit, align 8
  store ptr %10, ptr %retval, align 8
  br label %return

return:                                           ; preds = %if.else, %if.then
  %11 = load ptr, ptr %retval, align 8
  ret ptr %11
}

; Function Attrs: mustprogress nounwind uwtable
define linkonce_odr hidden noundef nonnull align 8 dereferenceable(192) ptr @_ZNK10polynomial7manager3imp2mmEv(ptr noundef nonnull align 8 dereferenceable(824) %this) #4 comdat align 2 {
entry:
  %this.addr = alloca ptr, align 8
  store ptr %this, ptr %this.addr, align 8
  %this1 = load ptr, ptr %this.addr, align 8
  %m_monomial_manager = getelementptr inbounds %"struct.polynomial::manager::imp", ptr %this1, i32 0, i32 4
  %0 = load ptr, ptr %m_monomial_manager, align 8
  ret ptr %0
}

; Function Attrs: mustprogress uwtable
define linkonce_odr hidden noundef ptr @_ZN10polynomial7manager3imp3gcdEPKNS_8monomialES4_RPS2_S6_(ptr noundef nonnull align 8 dereferenceable(824) %this, ptr noundef %m1, ptr noundef %m2, ptr noundef nonnull align 8 dereferenceable(8) %q1, ptr noundef nonnull align 8 dereferenceable(8) %q2) #5 comdat align 2 {
entry:
  %this.addr = alloca ptr, align 8
  %m1.addr = alloca ptr, align 8
  %m2.addr = alloca ptr, align 8
  %q1.addr = alloca ptr, align 8
  %q2.addr = alloca ptr, align 8
  store ptr %this, ptr %this.addr, align 8
  store ptr %m1, ptr %m1.addr, align 8
  store ptr %m2, ptr %m2.addr, align 8
  store ptr %q1, ptr %q1.addr, align 8
  store ptr %q2, ptr %q2.addr, align 8
  %this1 = load ptr, ptr %this.addr, align 8
  %call = call noundef nonnull align 8 dereferenceable(192) ptr @_ZNK10polynomial7manager3imp2mmEv(ptr noundef nonnull align 8 dereferenceable(824) %this1)
  %0 = load ptr, ptr %m1.addr, align 8
  %1 = load ptr, ptr %m2.addr, align 8
  %2 = load ptr, ptr %q1.addr, align 8
  %3 = load ptr, ptr %q2.addr, align 8
  %call2 = call noundef ptr @_ZN10polynomial16monomial_manager3gcdEPKNS_8monomialES3_RPS1_S5_(ptr noundef nonnull align 8 dereferenceable(192) %call, ptr noundef %0, ptr noundef %1, ptr noundef nonnull align 8 dereferenceable(8) %2, ptr noundef nonnull align 8 dereferenceable(8) %3)
  ret ptr %call2
}

; Function Attrs: mustprogress uwtable
define hidden noundef ptr @_ZN10polynomial7manager3gcdEPKNS_8monomialES3_RPS1_S5_(ptr noundef nonnull align 8 dereferenceable(8) %this, ptr noundef %m1, ptr noundef %m2, ptr noundef nonnull align 8 dereferenceable(8) %q1, ptr noundef nonnull align 8 dereferenceable(8) %q2) #5 align 2 {
entry:
  %this.addr = alloca ptr, align 8
  %m1.addr = alloca ptr, align 8
  %m2.addr = alloca ptr, align 8
  %q1.addr = alloca ptr, align 8
  %q2.addr = alloca ptr, align 8
  store ptr %this, ptr %this.addr, align 8
  store ptr %m1, ptr %m1.addr, align 8
  store ptr %m2, ptr %m2.addr, align 8
  store ptr %q1, ptr %q1.addr, align 8
  store ptr %q2, ptr %q2.addr, align 8
  %this1 = load ptr, ptr %this.addr, align 8
  %m_imp = getelementptr inbounds %"class.polynomial::manager", ptr %this1, i32 0, i32 0
  %0 = load ptr, ptr %m_imp, align 8
  %1 = load ptr, ptr %m1.addr, align 8
  %2 = load ptr, ptr %m2.addr, align 8
  %3 = load ptr, ptr %q1.addr, align 8
  %4 = load ptr, ptr %q2.addr, align 8
  %call = call noundef ptr @_ZN10polynomial7manager3imp3gcdEPKNS_8monomialES4_RPS2_S6_(ptr noundef nonnull align 8 dereferenceable(824) %0, ptr noundef %1, ptr noundef %2, ptr noundef nonnull align 8 dereferenceable(8) %3, ptr noundef nonnull align 8 dereferenceable(8) %4)
  ret ptr %call
}