; Function Attrs: mustprogress uwtable
define hidden noundef ptr @_ZN10polynomial7manager3gcdEPKNS_8monomialES3_RPS1_S5_(ptr nocapture noundef nonnull readonly align 8 dereferenceable(8) %this, ptr noundef %m1, ptr noundef %m2, ptr nocapture noundef nonnull writeonly align 8 dereferenceable(8) %q1, ptr nocapture noundef nonnull writeonly align 8 dereferenceable(8) %q2) local_unnamed_addr #4 align 2 {
entry:
  %0 = load ptr, ptr %this, align 8
  %m_monomial_manager.i.i = getelementptr inbounds i8, ptr %0, i64 464
  %1 = load ptr, ptr %m_monomial_manager.i.i, align 8
  %m_size.i.i.i = getelementptr inbounds i8, ptr %m1, i64 12
  %2 = load i32, ptr %m_size.i.i.i, align 4
  %m_powers.i.i.i = getelementptr inbounds i8, ptr %m1, i64 20
  %m_size.i7.i.i = getelementptr inbounds i8, ptr %m2, i64 12
  %3 = load i32, ptr %m_size.i7.i.i, align 4
  %m_powers.i8.i.i = getelementptr inbounds i8, ptr %m2, i64 20
  %m_tmp1.i.i = getelementptr inbounds i8, ptr %1, i64 136
  %m_tmp2.i.i = getelementptr inbounds i8, ptr %1, i64 152
  %m_tmp3.i.i = getelementptr inbounds i8, ptr %1, i64 168
  %call5.i.i = tail call noundef zeroext i1 @_ZN10polynomial16monomial_manager8gcd_coreEjPKNS_5powerEjS3_RNS_12tmp_monomialES5_S5_(ptr noundef nonnull align 8 dereferenceable(192) %1, i32 noundef %2, ptr noundef nonnull %m_powers.i.i.i, i32 noundef %3, ptr noundef nonnull %m_powers.i8.i.i, ptr noundef nonnull align 8 dereferenceable(12) %m_tmp1.i.i, ptr noundef nonnull align 8 dereferenceable(12) %m_tmp2.i.i, ptr noundef nonnull align 8 dereferenceable(12) %m_tmp3.i.i)
  br i1 %call5.i.i, label %if.then.i.i, label %if.else.i.i

if.then.i.i:                                      ; preds = %entry
  %call7.i.i = tail call noundef ptr @_ZN10polynomial16monomial_manager11mk_monomialERNS_12tmp_monomialE(ptr noundef nonnull align 8 dereferenceable(192) %1, ptr noundef nonnull align 8 dereferenceable(12) %m_tmp2.i.i)
  store ptr %call7.i.i, ptr %q1, align 8
  %call9.i.i = tail call noundef ptr @_ZN10polynomial16monomial_manager11mk_monomialERNS_12tmp_monomialE(ptr noundef nonnull align 8 dereferenceable(192) %1, ptr noundef nonnull align 8 dereferenceable(12) %m_tmp3.i.i)
  store ptr %call9.i.i, ptr %q2, align 8
  %call11.i.i = tail call noundef ptr @_ZN10polynomial16monomial_manager11mk_monomialERNS_12tmp_monomialE(ptr noundef nonnull align 8 dereferenceable(192) %1, ptr noundef nonnull align 8 dereferenceable(12) %m_tmp1.i.i)
  br label %_ZN10polynomial7manager3imp3gcdEPKNS_8monomialES4_RPS2_S6_.exit

if.else.i.i:                                      ; preds = %entry
  store ptr %m2, ptr %q1, align 8
  store ptr %m1, ptr %q2, align 8
  %m_unit.i.i = getelementptr inbounds i8, ptr %1, i64 112
  %4 = load ptr, ptr %m_unit.i.i, align 8
  br label %_ZN10polynomial7manager3imp3gcdEPKNS_8monomialES4_RPS2_S6_.exit

_ZN10polynomial7manager3imp3gcdEPKNS_8monomialES4_RPS2_S6_.exit: ; preds = %if.then.i.i, %if.else.i.i
  %retval.0.i.i = phi ptr [ %call11.i.i, %if.then.i.i ], [ %4, %if.else.i.i ]
  ret ptr %retval.0.i.i
}